	.syntax unified
	.cpu cortex-m0
	.fpu softvfp
	.eabi_attribute 20, 1
	.eabi_attribute 21, 1
	.eabi_attribute 23, 3
	.eabi_attribute 24, 1
	.eabi_attribute 25, 1
	.eabi_attribute 26, 1
	.eabi_attribute 30, 6
	.eabi_attribute 34, 0
	.eabi_attribute 18, 4
	.thumb
	.syntax unified
	.file	"libs.c"
	.text
.Ltext0:
	.cfi_sections	.debug_frame
	.global	btn0_previous_state
	.bss
	.align	2
	.type	btn0_previous_state, %object
	.size	btn0_previous_state, 4
btn0_previous_state:
	.space	4
	.global	btn1_previous_state
	.align	2
	.type	btn1_previous_state, %object
	.size	btn1_previous_state, 4
btn1_previous_state:
	.space	4
	.global	btn2_previous_state
	.align	2
	.type	btn2_previous_state, %object
	.size	btn2_previous_state, 4
btn2_previous_state:
	.space	4
	.global	btn3_previous_state
	.align	2
	.type	btn3_previous_state, %object
	.size	btn3_previous_state, 4
btn3_previous_state:
	.space	4
	.text
	.align	2
	.global	lib_init_leds
	.code	16
	.thumb_func
	.type	lib_init_leds, %function
lib_init_leds:
.LFB0:
	.file 1 "libs.c"
	.loc 1 14 0
	.cfi_startproc
	push	{r7, lr}
	.cfi_def_cfa_offset 8
	.cfi_offset 7, -8
	.cfi_offset 14, -4
	add	r7, sp, #0
	.cfi_def_cfa_register 7
	.loc 1 16 0
	ldr	r3, .L2
	ldr	r2, .L2
	ldr	r2, [r2, #20]
	movs	r1, #128
	lsls	r1, r1, #11
	orrs	r2, r1
	str	r2, [r3, #20]
	.loc 1 18 0
	ldr	r3, .L2+4
	ldr	r2, .L2+8
	str	r2, [r3]
	.loc 1 19 0
	nop
	mov	sp, r7
	@ sp needed
	pop	{r7, pc}
.L3:
	.align	2
.L2:
	.word	1073876992
	.word	1207960576
	.word	21845
	.cfi_endproc
.LFE0:
	.size	lib_init_leds, .-lib_init_leds
	.align	2
	.global	lib_write_leds
	.code	16
	.thumb_func
	.type	lib_write_leds, %function
lib_write_leds:
.LFB1:
	.loc 1 21 0
	.cfi_startproc
	push	{r7, lr}
	.cfi_def_cfa_offset 8
	.cfi_offset 7, -8
	.cfi_offset 14, -4
	sub	sp, sp, #8
	.cfi_def_cfa_offset 16
	add	r7, sp, #0
	.cfi_def_cfa_register 7
	movs	r2, r0
	adds	r3, r7, #7
	strb	r2, [r3]
	.loc 1 23 0
	ldr	r2, .L5
	adds	r3, r7, #7
	ldrb	r3, [r3]
	uxth	r3, r3
	strh	r3, [r2, #20]
	.loc 1 24 0
	nop
	mov	sp, r7
	add	sp, sp, #8
	@ sp needed
	pop	{r7, pc}
.L6:
	.align	2
.L5:
	.word	1207960576
	.cfi_endproc
.LFE1:
	.size	lib_write_leds, .-lib_write_leds
	.align	2
	.global	lib_read_leds
	.code	16
	.thumb_func
	.type	lib_read_leds, %function
lib_read_leds:
.LFB2:
	.loc 1 26 0
	.cfi_startproc
	push	{r7, lr}
	.cfi_def_cfa_offset 8
	.cfi_offset 7, -8
	.cfi_offset 14, -4
	sub	sp, sp, #8
	.cfi_def_cfa_offset 16
	add	r7, sp, #0
	.cfi_def_cfa_register 7
	.loc 1 29 0
	ldr	r3, .L9
	ldrh	r3, [r3, #20]
	uxth	r2, r3
	adds	r3, r7, #7
	strb	r2, [r3]
	.loc 1 30 0
	adds	r3, r7, #7
	ldrb	r3, [r3]
	.loc 1 31 0
	movs	r0, r3
	mov	sp, r7
	add	sp, sp, #8
	@ sp needed
	pop	{r7, pc}
.L10:
	.align	2
.L9:
	.word	1207960576
	.cfi_endproc
.LFE2:
	.size	lib_read_leds, .-lib_read_leds
	.align	2
	.global	lib_init_buttons
	.code	16
	.thumb_func
	.type	lib_init_buttons, %function
lib_init_buttons:
.LFB3:
	.loc 1 33 0
	.cfi_startproc
	push	{r7, lr}
	.cfi_def_cfa_offset 8
	.cfi_offset 7, -8
	.cfi_offset 14, -4
	add	r7, sp, #0
	.cfi_def_cfa_register 7
	.loc 1 35 0
	ldr	r3, .L12
	ldr	r2, .L12
	ldr	r2, [r2, #20]
	movs	r1, #128
	lsls	r1, r1, #10
	orrs	r2, r1
	str	r2, [r3, #20]
	.loc 1 37 0
	movs	r3, #144
	lsls	r3, r3, #23
	movs	r2, #144
	lsls	r2, r2, #23
	ldr	r2, [r2, #12]
	movs	r1, #85
	orrs	r2, r1
	str	r2, [r3, #12]
	.loc 1 38 0
	nop
	mov	sp, r7
	@ sp needed
	pop	{r7, pc}
.L13:
	.align	2
.L12:
	.word	1073876992
	.cfi_endproc
.LFE3:
	.size	lib_init_buttons, .-lib_init_buttons
	.align	2
	.global	lib_read_button_0
	.code	16
	.thumb_func
	.type	lib_read_button_0, %function
lib_read_button_0:
.LFB4:
	.loc 1 40 0
	.cfi_startproc
	push	{r7, lr}
	.cfi_def_cfa_offset 8
	.cfi_offset 7, -8
	.cfi_offset 14, -4
	add	r7, sp, #0
	.cfi_def_cfa_register 7
	.loc 1 42 0
	movs	r3, #144
	lsls	r3, r3, #23
	ldrh	r3, [r3, #16]
	uxth	r3, r3
	movs	r2, r3
	movs	r3, #1
	ands	r3, r2
	bne	.L15
	.loc 1 44 0
	movs	r3, #1
	b	.L16
.L15:
	.loc 1 48 0
	movs	r3, #0
.L16:
	.loc 1 50 0
	movs	r0, r3
	mov	sp, r7
	@ sp needed
	pop	{r7, pc}
	.cfi_endproc
.LFE4:
	.size	lib_read_button_0, .-lib_read_button_0
	.align	2
	.global	lib_read_button_1
	.code	16
	.thumb_func
	.type	lib_read_button_1, %function
lib_read_button_1:
.LFB5:
	.loc 1 52 0
	.cfi_startproc
	push	{r7, lr}
	.cfi_def_cfa_offset 8
	.cfi_offset 7, -8
	.cfi_offset 14, -4
	add	r7, sp, #0
	.cfi_def_cfa_register 7
	.loc 1 54 0
	movs	r3, #144
	lsls	r3, r3, #23
	ldrh	r3, [r3, #16]
	uxth	r3, r3
	movs	r2, r3
	movs	r3, #2
	ands	r3, r2
	bne	.L18
	.loc 1 56 0
	movs	r3, #1
	b	.L19
.L18:
	.loc 1 60 0
	movs	r3, #0
.L19:
	.loc 1 62 0
	movs	r0, r3
	mov	sp, r7
	@ sp needed
	pop	{r7, pc}
	.cfi_endproc
.LFE5:
	.size	lib_read_button_1, .-lib_read_button_1
	.align	2
	.global	lib_read_button_2
	.code	16
	.thumb_func
	.type	lib_read_button_2, %function
lib_read_button_2:
.LFB6:
	.loc 1 64 0
	.cfi_startproc
	push	{r7, lr}
	.cfi_def_cfa_offset 8
	.cfi_offset 7, -8
	.cfi_offset 14, -4
	add	r7, sp, #0
	.cfi_def_cfa_register 7
	.loc 1 66 0
	movs	r3, #144
	lsls	r3, r3, #23
	ldrh	r3, [r3, #16]
	uxth	r3, r3
	movs	r2, r3
	movs	r3, #4
	ands	r3, r2
	bne	.L21
	.loc 1 68 0
	movs	r3, #1
	b	.L22
.L21:
	.loc 1 72 0
	movs	r3, #0
.L22:
	.loc 1 74 0
	movs	r0, r3
	mov	sp, r7
	@ sp needed
	pop	{r7, pc}
	.cfi_endproc
.LFE6:
	.size	lib_read_button_2, .-lib_read_button_2
	.align	2
	.global	lib_read_button_3
	.code	16
	.thumb_func
	.type	lib_read_button_3, %function
lib_read_button_3:
.LFB7:
	.loc 1 76 0
	.cfi_startproc
	push	{r7, lr}
	.cfi_def_cfa_offset 8
	.cfi_offset 7, -8
	.cfi_offset 14, -4
	add	r7, sp, #0
	.cfi_def_cfa_register 7
	.loc 1 78 0
	movs	r3, #144
	lsls	r3, r3, #23
	ldrh	r3, [r3, #16]
	uxth	r3, r3
	movs	r2, r3
	movs	r3, #8
	ands	r3, r2
	bne	.L24
	.loc 1 80 0
	movs	r3, #1
	b	.L25
.L24:
	.loc 1 84 0
	movs	r3, #0
.L25:
	.loc 1 86 0
	movs	r0, r3
	mov	sp, r7
	@ sp needed
	pop	{r7, pc}
	.cfi_endproc
.LFE7:
	.size	lib_read_button_3, .-lib_read_button_3
	.align	2
	.global	lib_read_falling_edge_button0
	.code	16
	.thumb_func
	.type	lib_read_falling_edge_button0, %function
lib_read_falling_edge_button0:
.LFB8:
	.loc 1 88 0
	.cfi_startproc
	push	{r7, lr}
	.cfi_def_cfa_offset 8
	.cfi_offset 7, -8
	.cfi_offset 14, -4
	sub	sp, sp, #8
	.cfi_def_cfa_offset 16
	add	r7, sp, #0
	.cfi_def_cfa_register 7
	.loc 1 89 0
	bl	lib_read_button_0
	movs	r3, r0
	str	r3, [r7, #4]
	.loc 1 91 0
	ldr	r3, [r7, #4]
	subs	r3, r3, #1
	rsbs	r2, r3, #0
	adcs	r3, r3, r2
	uxtb	r2, r3
	ldr	r3, .L29
	ldr	r3, [r3]
	rsbs	r1, r3, #0
	adcs	r3, r3, r1
	uxtb	r3, r3
	ands	r3, r2
	uxtb	r3, r3
	cmp	r3, #0
	beq	.L27
	.loc 1 92 0
	movs	r3, #1
	b	.L28
.L27:
	.loc 1 95 0
	ldr	r3, .L29
	ldr	r2, [r7, #4]
	str	r2, [r3]
	.loc 1 96 0
	movs	r3, #0
.L28:
	.loc 1 98 0
	movs	r0, r3
	mov	sp, r7
	add	sp, sp, #8
	@ sp needed
	pop	{r7, pc}
.L30:
	.align	2
.L29:
	.word	btn0_previous_state
	.cfi_endproc
.LFE8:
	.size	lib_read_falling_edge_button0, .-lib_read_falling_edge_button0
	.align	2
	.global	lib_read_falling_edge_button1
	.code	16
	.thumb_func
	.type	lib_read_falling_edge_button1, %function
lib_read_falling_edge_button1:
.LFB9:
	.loc 1 100 0
	.cfi_startproc
	push	{r7, lr}
	.cfi_def_cfa_offset 8
	.cfi_offset 7, -8
	.cfi_offset 14, -4
	sub	sp, sp, #8
	.cfi_def_cfa_offset 16
	add	r7, sp, #0
	.cfi_def_cfa_register 7
	.loc 1 101 0
	bl	lib_read_button_1
	movs	r3, r0
	str	r3, [r7, #4]
	.loc 1 103 0
	ldr	r3, [r7, #4]
	subs	r3, r3, #1
	rsbs	r2, r3, #0
	adcs	r3, r3, r2
	uxtb	r2, r3
	ldr	r3, .L34
	ldr	r3, [r3]
	rsbs	r1, r3, #0
	adcs	r3, r3, r1
	uxtb	r3, r3
	ands	r3, r2
	uxtb	r3, r3
	cmp	r3, #0
	beq	.L32
	.loc 1 104 0
	movs	r3, #1
	b	.L33
.L32:
	.loc 1 107 0
	ldr	r3, .L34
	ldr	r2, [r7, #4]
	str	r2, [r3]
	.loc 1 108 0
	movs	r3, #0
.L33:
	.loc 1 110 0
	movs	r0, r3
	mov	sp, r7
	add	sp, sp, #8
	@ sp needed
	pop	{r7, pc}
.L35:
	.align	2
.L34:
	.word	btn1_previous_state
	.cfi_endproc
.LFE9:
	.size	lib_read_falling_edge_button1, .-lib_read_falling_edge_button1
	.align	2
	.global	lib_read_falling_edge_button2
	.code	16
	.thumb_func
	.type	lib_read_falling_edge_button2, %function
lib_read_falling_edge_button2:
.LFB10:
	.loc 1 112 0
	.cfi_startproc
	push	{r7, lr}
	.cfi_def_cfa_offset 8
	.cfi_offset 7, -8
	.cfi_offset 14, -4
	sub	sp, sp, #8
	.cfi_def_cfa_offset 16
	add	r7, sp, #0
	.cfi_def_cfa_register 7
	.loc 1 113 0
	bl	lib_read_button_2
	movs	r3, r0
	str	r3, [r7, #4]
	.loc 1 115 0
	ldr	r3, [r7, #4]
	subs	r3, r3, #1
	rsbs	r2, r3, #0
	adcs	r3, r3, r2
	uxtb	r2, r3
	ldr	r3, .L39
	ldr	r3, [r3]
	rsbs	r1, r3, #0
	adcs	r3, r3, r1
	uxtb	r3, r3
	ands	r3, r2
	uxtb	r3, r3
	cmp	r3, #0
	beq	.L37
	.loc 1 116 0
	movs	r3, #1
	b	.L38
.L37:
	.loc 1 119 0
	ldr	r3, .L39+4
	ldr	r2, [r7, #4]
	str	r2, [r3]
	.loc 1 120 0
	movs	r3, #0
.L38:
	.loc 1 122 0
	movs	r0, r3
	mov	sp, r7
	add	sp, sp, #8
	@ sp needed
	pop	{r7, pc}
.L40:
	.align	2
.L39:
	.word	btn0_previous_state
	.word	btn2_previous_state
	.cfi_endproc
.LFE10:
	.size	lib_read_falling_edge_button2, .-lib_read_falling_edge_button2
	.align	2
	.global	lib_read_falling_edge_button3
	.code	16
	.thumb_func
	.type	lib_read_falling_edge_button3, %function
lib_read_falling_edge_button3:
.LFB11:
	.loc 1 124 0
	.cfi_startproc
	push	{r7, lr}
	.cfi_def_cfa_offset 8
	.cfi_offset 7, -8
	.cfi_offset 14, -4
	sub	sp, sp, #8
	.cfi_def_cfa_offset 16
	add	r7, sp, #0
	.cfi_def_cfa_register 7
	.loc 1 125 0
	bl	lib_read_button_3
	movs	r3, r0
	str	r3, [r7, #4]
	.loc 1 127 0
	ldr	r3, [r7, #4]
	subs	r3, r3, #1
	rsbs	r2, r3, #0
	adcs	r3, r3, r2
	uxtb	r2, r3
	ldr	r3, .L44
	ldr	r3, [r3]
	rsbs	r1, r3, #0
	adcs	r3, r3, r1
	uxtb	r3, r3
	ands	r3, r2
	uxtb	r3, r3
	cmp	r3, #0
	beq	.L42
	.loc 1 128 0
	movs	r3, #1
	b	.L43
.L42:
	.loc 1 131 0
	ldr	r3, .L44+4
	ldr	r2, [r7, #4]
	str	r2, [r3]
	.loc 1 132 0
	movs	r3, #0
.L43:
	.loc 1 134 0
	movs	r0, r3
	mov	sp, r7
	add	sp, sp, #8
	@ sp needed
	pop	{r7, pc}
.L45:
	.align	2
.L44:
	.word	btn0_previous_state
	.word	btn3_previous_state
	.cfi_endproc
.LFE11:
	.size	lib_read_falling_edge_button3, .-lib_read_falling_edge_button3
	.align	2
	.global	lib_init_adc_6bit
	.code	16
	.thumb_func
	.type	lib_init_adc_6bit, %function
lib_init_adc_6bit:
.LFB12:
	.loc 1 136 0
	.cfi_startproc
	push	{r7, lr}
	.cfi_def_cfa_offset 8
	.cfi_offset 7, -8
	.cfi_offset 14, -4
	add	r7, sp, #0
	.cfi_def_cfa_register 7
	.loc 1 138 0
	ldr	r3, .L48
	ldr	r2, .L48
	ldr	r2, [r2, #24]
	movs	r1, #128
	lsls	r1, r1, #2
	orrs	r2, r1
	str	r2, [r3, #24]
	.loc 1 140 0
	ldr	r3, .L48+4
	ldr	r2, .L48+4
	ldr	r2, [r2, #12]
	movs	r1, #24
	orrs	r2, r1
	str	r2, [r3, #12]
	.loc 1 142 0
	ldr	r3, .L48+4
	ldr	r2, .L48+4
	ldr	r2, [r2, #8]
	movs	r1, #1
	orrs	r2, r1
	str	r2, [r3, #8]
	.loc 1 145 0
	nop
.L47:
	.loc 1 145 0 is_stmt 0 discriminator 1
	ldr	r3, .L48+4
	ldr	r3, [r3]
	movs	r2, #1
	ands	r3, r2
	beq	.L47
	.loc 1 146 0 is_stmt 1
	nop
	mov	sp, r7
	@ sp needed
	pop	{r7, pc}
.L49:
	.align	2
.L48:
	.word	1073876992
	.word	1073816576
	.cfi_endproc
.LFE12:
	.size	lib_init_adc_6bit, .-lib_init_adc_6bit
	.align	2
	.global	lib_init_adc_8bit
	.code	16
	.thumb_func
	.type	lib_init_adc_8bit, %function
lib_init_adc_8bit:
.LFB13:
	.loc 1 148 0
	.cfi_startproc
	push	{r7, lr}
	.cfi_def_cfa_offset 8
	.cfi_offset 7, -8
	.cfi_offset 14, -4
	add	r7, sp, #0
	.cfi_def_cfa_register 7
	.loc 1 150 0
	ldr	r3, .L52
	ldr	r2, .L52
	ldr	r2, [r2, #24]
	movs	r1, #128
	lsls	r1, r1, #2
	orrs	r2, r1
	str	r2, [r3, #24]
	.loc 1 152 0
	ldr	r3, .L52+4
	ldr	r2, .L52+4
	ldr	r2, [r2, #12]
	movs	r1, #16
	orrs	r2, r1
	str	r2, [r3, #12]
	.loc 1 154 0
	ldr	r3, .L52+4
	ldr	r2, .L52+4
	ldr	r2, [r2, #8]
	movs	r1, #1
	orrs	r2, r1
	str	r2, [r3, #8]
	.loc 1 157 0
	nop
.L51:
	.loc 1 157 0 is_stmt 0 discriminator 1
	ldr	r3, .L52+4
	ldr	r3, [r3]
	movs	r2, #1
	ands	r3, r2
	beq	.L51
	.loc 1 158 0 is_stmt 1
	nop
	mov	sp, r7
	@ sp needed
	pop	{r7, pc}
.L53:
	.align	2
.L52:
	.word	1073876992
	.word	1073816576
	.cfi_endproc
.LFE13:
	.size	lib_init_adc_8bit, .-lib_init_adc_8bit
	.align	2
	.global	lib_init_adc_10bit
	.code	16
	.thumb_func
	.type	lib_init_adc_10bit, %function
lib_init_adc_10bit:
.LFB14:
	.loc 1 160 0
	.cfi_startproc
	push	{r7, lr}
	.cfi_def_cfa_offset 8
	.cfi_offset 7, -8
	.cfi_offset 14, -4
	add	r7, sp, #0
	.cfi_def_cfa_register 7
	.loc 1 162 0
	ldr	r3, .L56
	ldr	r2, .L56
	ldr	r2, [r2, #24]
	movs	r1, #128
	lsls	r1, r1, #2
	orrs	r2, r1
	str	r2, [r3, #24]
	.loc 1 164 0
	ldr	r3, .L56+4
	ldr	r2, .L56+4
	ldr	r2, [r2, #12]
	movs	r1, #8
	orrs	r2, r1
	str	r2, [r3, #12]
	.loc 1 166 0
	ldr	r3, .L56+4
	ldr	r2, .L56+4
	ldr	r2, [r2, #8]
	movs	r1, #1
	orrs	r2, r1
	str	r2, [r3, #8]
	.loc 1 169 0
	nop
.L55:
	.loc 1 169 0 is_stmt 0 discriminator 1
	ldr	r3, .L56+4
	ldr	r3, [r3]
	movs	r2, #1
	ands	r3, r2
	beq	.L55
	.loc 1 170 0 is_stmt 1
	nop
	mov	sp, r7
	@ sp needed
	pop	{r7, pc}
.L57:
	.align	2
.L56:
	.word	1073876992
	.word	1073816576
	.cfi_endproc
.LFE14:
	.size	lib_init_adc_10bit, .-lib_init_adc_10bit
	.align	2
	.global	lib_init_adc_12bit
	.code	16
	.thumb_func
	.type	lib_init_adc_12bit, %function
lib_init_adc_12bit:
.LFB15:
	.loc 1 172 0
	.cfi_startproc
	push	{r7, lr}
	.cfi_def_cfa_offset 8
	.cfi_offset 7, -8
	.cfi_offset 14, -4
	add	r7, sp, #0
	.cfi_def_cfa_register 7
	.loc 1 174 0
	ldr	r3, .L60
	ldr	r2, .L60
	ldr	r2, [r2, #24]
	movs	r1, #128
	lsls	r1, r1, #2
	orrs	r2, r1
	str	r2, [r3, #24]
	.loc 1 176 0
	ldr	r3, .L60+4
	ldr	r2, .L60+4
	ldr	r2, [r2, #12]
	str	r2, [r3, #12]
	.loc 1 178 0
	ldr	r3, .L60+4
	ldr	r2, .L60+4
	ldr	r2, [r2, #8]
	movs	r1, #1
	orrs	r2, r1
	str	r2, [r3, #8]
	.loc 1 181 0
	nop
.L59:
	.loc 1 181 0 is_stmt 0 discriminator 1
	ldr	r3, .L60+4
	ldr	r3, [r3]
	movs	r2, #1
	ands	r3, r2
	beq	.L59
	.loc 1 182 0 is_stmt 1
	nop
	mov	sp, r7
	@ sp needed
	pop	{r7, pc}
.L61:
	.align	2
.L60:
	.word	1073876992
	.word	1073816576
	.cfi_endproc
.LFE15:
	.size	lib_init_adc_12bit, .-lib_init_adc_12bit
	.align	2
	.global	lib_adc_cal
	.code	16
	.thumb_func
	.type	lib_adc_cal, %function
lib_adc_cal:
.LFB16:
	.loc 1 184 0
	.cfi_startproc
	push	{r7, lr}
	.cfi_def_cfa_offset 8
	.cfi_offset 7, -8
	.cfi_offset 14, -4
	add	r7, sp, #0
	.cfi_def_cfa_register 7
	.loc 1 185 0
	ldr	r3, .L63
	movs	r2, #128
	lsls	r2, r2, #24
	str	r2, [r3, #8]
	.loc 1 186 0
	nop
	ldr	r3, .L63
	ldr	r3, [r3, #8]
	.loc 1 187 0
	nop
	mov	sp, r7
	@ sp needed
	pop	{r7, pc}
.L64:
	.align	2
.L63:
	.word	1073816576
	.cfi_endproc
.LFE16:
	.size	lib_adc_cal, .-lib_adc_cal
	.align	2
	.global	lib_init_pot0
	.code	16
	.thumb_func
	.type	lib_init_pot0, %function
lib_init_pot0:
.LFB17:
	.loc 1 189 0
	.cfi_startproc
	push	{r7, lr}
	.cfi_def_cfa_offset 8
	.cfi_offset 7, -8
	.cfi_offset 14, -4
	add	r7, sp, #0
	.cfi_def_cfa_register 7
	.loc 1 190 0
	movs	r3, #144
	lsls	r3, r3, #23
	movs	r2, #144
	lsls	r2, r2, #23
	ldr	r2, [r2]
	movs	r1, #192
	lsls	r1, r1, #4
	orrs	r2, r1
	str	r2, [r3]
	.loc 1 191 0
	nop
	mov	sp, r7
	@ sp needed
	pop	{r7, pc}
	.cfi_endproc
.LFE17:
	.size	lib_init_pot0, .-lib_init_pot0
	.align	2
	.global	lib_init_pot1
	.code	16
	.thumb_func
	.type	lib_init_pot1, %function
lib_init_pot1:
.LFB18:
	.loc 1 193 0
	.cfi_startproc
	push	{r7, lr}
	.cfi_def_cfa_offset 8
	.cfi_offset 7, -8
	.cfi_offset 14, -4
	add	r7, sp, #0
	.cfi_def_cfa_register 7
	.loc 1 194 0
	movs	r3, #144
	lsls	r3, r3, #23
	movs	r2, #144
	lsls	r2, r2, #23
	ldr	r2, [r2]
	movs	r1, #192
	lsls	r1, r1, #6
	orrs	r2, r1
	str	r2, [r3]
	.loc 1 195 0
	nop
	mov	sp, r7
	@ sp needed
	pop	{r7, pc}
	.cfi_endproc
.LFE18:
	.size	lib_init_pot1, .-lib_init_pot1
	.align	2
	.global	lib_read_pot0
	.code	16
	.thumb_func
	.type	lib_read_pot0, %function
lib_read_pot0:
.LFB19:
	.loc 1 197 0
	.cfi_startproc
	push	{r7, lr}
	.cfi_def_cfa_offset 8
	.cfi_offset 7, -8
	.cfi_offset 14, -4
	sub	sp, sp, #8
	.cfi_def_cfa_offset 16
	add	r7, sp, #0
	.cfi_def_cfa_register 7
	.loc 1 201 0
	ldr	r3, .L70
	movs	r2, #32
	str	r2, [r3, #40]
	.loc 1 203 0
	ldr	r3, .L70
	ldr	r2, .L70
	ldr	r2, [r2, #8]
	movs	r1, #4
	orrs	r2, r1
	str	r2, [r3, #8]
	.loc 1 205 0
	nop
.L68:
	.loc 1 205 0 is_stmt 0 discriminator 1
	ldr	r3, .L70
	ldr	r3, [r3]
	movs	r2, #4
	ands	r3, r2
	beq	.L68
	.loc 1 207 0 is_stmt 1
	ldr	r3, .L70
	ldr	r2, [r3, #64]
	adds	r3, r7, #6
	strh	r2, [r3]
	.loc 1 209 0
	adds	r3, r7, #6
	ldrh	r3, [r3]
	uxtb	r3, r3
	.loc 1 210 0
	movs	r0, r3
	mov	sp, r7
	add	sp, sp, #8
	@ sp needed
	pop	{r7, pc}
.L71:
	.align	2
.L70:
	.word	1073816576
	.cfi_endproc
.LFE19:
	.size	lib_read_pot0, .-lib_read_pot0
	.align	2
	.global	lib_read_pot1
	.code	16
	.thumb_func
	.type	lib_read_pot1, %function
lib_read_pot1:
.LFB20:
	.loc 1 212 0
	.cfi_startproc
	push	{r7, lr}
	.cfi_def_cfa_offset 8
	.cfi_offset 7, -8
	.cfi_offset 14, -4
	sub	sp, sp, #8
	.cfi_def_cfa_offset 16
	add	r7, sp, #0
	.cfi_def_cfa_register 7
	.loc 1 216 0
	ldr	r3, .L75
	movs	r2, #64
	str	r2, [r3, #40]
	.loc 1 218 0
	ldr	r3, .L75
	ldr	r2, .L75
	ldr	r2, [r2, #8]
	movs	r1, #4
	orrs	r2, r1
	str	r2, [r3, #8]
	.loc 1 220 0
	nop
.L73:
	.loc 1 220 0 is_stmt 0 discriminator 1
	ldr	r3, .L75
	ldr	r3, [r3]
	movs	r2, #4
	ands	r3, r2
	beq	.L73
	.loc 1 222 0 is_stmt 1
	ldr	r3, .L75
	ldr	r2, [r3, #64]
	adds	r3, r7, #6
	strh	r2, [r3]
	.loc 1 224 0
	adds	r3, r7, #6
	ldrh	r3, [r3]
	uxtb	r3, r3
	.loc 1 225 0
	movs	r0, r3
	mov	sp, r7
	add	sp, sp, #8
	@ sp needed
	pop	{r7, pc}
.L76:
	.align	2
.L75:
	.word	1073816576
	.cfi_endproc
.LFE20:
	.size	lib_read_pot1, .-lib_read_pot1
	.align	2
	.global	lib_init_TIM6
	.code	16
	.thumb_func
	.type	lib_init_TIM6, %function
lib_init_TIM6:
.LFB21:
	.loc 1 227 0
	.cfi_startproc
	push	{r7, lr}
	.cfi_def_cfa_offset 8
	.cfi_offset 7, -8
	.cfi_offset 14, -4
	sub	sp, sp, #8
	.cfi_def_cfa_offset 16
	add	r7, sp, #0
	.cfi_def_cfa_register 7
	str	r0, [r7, #4]
	str	r1, [r7]
	.loc 1 229 0
	ldr	r3, .L78
	ldr	r2, .L78
	ldr	r2, [r2, #28]
	movs	r1, #16
	orrs	r2, r1
	str	r2, [r3, #28]
	.loc 1 231 0
	ldr	r3, .L78+4
	ldr	r2, [r7, #4]
	uxth	r2, r2
	strh	r2, [r3, #40]
	.loc 1 233 0
	ldr	r3, .L78+4
	ldr	r2, [r7]
	str	r2, [r3, #44]
	.loc 1 235 0
	ldr	r2, .L78+4
	ldr	r3, .L78+4
	ldrh	r3, [r3, #12]
	uxth	r3, r3
	movs	r1, #1
	orrs	r3, r1
	uxth	r3, r3
	strh	r3, [r2, #12]
	.loc 1 237 0
	ldr	r2, .L78+4
	ldr	r3, .L78+4
	ldrh	r3, [r3]
	uxth	r3, r3
	movs	r1, #1
	orrs	r3, r1
	uxth	r3, r3
	strh	r3, [r2]
	.loc 1 239 0
	ldr	r2, .L78+4
	ldr	r3, .L78+4
	ldrh	r3, [r3]
	uxth	r3, r3
	movs	r1, #128
	orrs	r3, r1
	uxth	r3, r3
	strh	r3, [r2]
	.loc 1 241 0
	ldr	r3, .L78+8
	ldr	r2, .L78+8
	ldr	r2, [r2]
	movs	r1, #128
	lsls	r1, r1, #10
	orrs	r2, r1
	str	r2, [r3]
	.loc 1 242 0
	nop
	mov	sp, r7
	add	sp, sp, #8
	@ sp needed
	pop	{r7, pc}
.L79:
	.align	2
.L78:
	.word	1073876992
	.word	1073745920
	.word	-536813312
	.cfi_endproc
.LFE21:
	.size	lib_init_TIM6, .-lib_init_TIM6
	.align	2
	.global	lib_TIM6_update_ARR
	.code	16
	.thumb_func
	.type	lib_TIM6_update_ARR, %function
lib_TIM6_update_ARR:
.LFB22:
	.loc 1 244 0
	.cfi_startproc
	push	{r7, lr}
	.cfi_def_cfa_offset 8
	.cfi_offset 7, -8
	.cfi_offset 14, -4
	sub	sp, sp, #8
	.cfi_def_cfa_offset 16
	add	r7, sp, #0
	.cfi_def_cfa_register 7
	str	r0, [r7, #4]
	.loc 1 245 0
	ldr	r3, .L81
	ldr	r2, [r7, #4]
	str	r2, [r3, #44]
	.loc 1 246 0
	nop
	mov	sp, r7
	add	sp, sp, #8
	@ sp needed
	pop	{r7, pc}
.L82:
	.align	2
.L81:
	.word	1073745920
	.cfi_endproc
.LFE22:
	.size	lib_TIM6_update_ARR, .-lib_TIM6_update_ARR
	.align	2
	.global	lib_TIM6_update_PSC
	.code	16
	.thumb_func
	.type	lib_TIM6_update_PSC, %function
lib_TIM6_update_PSC:
.LFB23:
	.loc 1 248 0
	.cfi_startproc
	push	{r7, lr}
	.cfi_def_cfa_offset 8
	.cfi_offset 7, -8
	.cfi_offset 14, -4
	sub	sp, sp, #8
	.cfi_def_cfa_offset 16
	add	r7, sp, #0
	.cfi_def_cfa_register 7
	str	r0, [r7, #4]
	.loc 1 249 0
	ldr	r3, .L84
	ldr	r2, [r7, #4]
	uxth	r2, r2
	strh	r2, [r3, #40]
	.loc 1 250 0
	nop
	mov	sp, r7
	add	sp, sp, #8
	@ sp needed
	pop	{r7, pc}
.L85:
	.align	2
.L84:
	.word	1073745920
	.cfi_endproc
.LFE23:
	.size	lib_TIM6_update_PSC, .-lib_TIM6_update_PSC
	.align	2
	.global	lib_TIM6_ACK
	.code	16
	.thumb_func
	.type	lib_TIM6_ACK, %function
lib_TIM6_ACK:
.LFB24:
	.loc 1 252 0
	.cfi_startproc
	push	{r7, lr}
	.cfi_def_cfa_offset 8
	.cfi_offset 7, -8
	.cfi_offset 14, -4
	add	r7, sp, #0
	.cfi_def_cfa_register 7
	.loc 1 253 0
	ldr	r2, .L87
	ldr	r3, .L87
	ldrh	r3, [r3, #16]
	uxth	r3, r3
	movs	r1, #1
	bics	r3, r1
	uxth	r3, r3
	strh	r3, [r2, #16]
	.loc 1 254 0
	nop
	mov	sp, r7
	@ sp needed
	pop	{r7, pc}
.L88:
	.align	2
.L87:
	.word	1073745920
	.cfi_endproc
.LFE24:
	.size	lib_TIM6_ACK, .-lib_TIM6_ACK
	.align	2
	.global	delay_ms
	.code	16
	.thumb_func
	.type	delay_ms, %function
delay_ms:
.LFB25:
	.loc 1 256 0
	.cfi_startproc
	push	{r7, lr}
	.cfi_def_cfa_offset 8
	.cfi_offset 7, -8
	.cfi_offset 14, -4
	sub	sp, sp, #16
	.cfi_def_cfa_offset 24
	add	r7, sp, #0
	.cfi_def_cfa_register 7
	str	r0, [r7, #4]
	.loc 1 258 0
	ldr	r3, [r7, #4]
	ldr	r2, .L92
	muls	r3, r2
	str	r3, [r7, #12]
	.loc 1 259 0
	b	.L90
.L91:
	.loc 1 260 0
	ldr	r3, [r7, #12]
	subs	r3, r3, #1
	str	r3, [r7, #12]
.L90:
	.loc 1 259 0
	ldr	r3, [r7, #12]
	cmp	r3, #0
	bgt	.L91
	.loc 1 262 0
	nop
	mov	sp, r7
	add	sp, sp, #16
	@ sp needed
	pop	{r7, pc}
.L93:
	.align	2
.L92:
	.word	735
	.cfi_endproc
.LFE25:
	.size	delay_ms, .-delay_ms
	.align	2
	.global	delay_us
	.code	16
	.thumb_func
	.type	delay_us, %function
delay_us:
.LFB26:
	.loc 1 264 0
	.cfi_startproc
	push	{r7, lr}
	.cfi_def_cfa_offset 8
	.cfi_offset 7, -8
	.cfi_offset 14, -4
	sub	sp, sp, #16
	.cfi_def_cfa_offset 24
	add	r7, sp, #0
	.cfi_def_cfa_register 7
	str	r0, [r7, #4]
	.loc 1 266 0
	movs	r3, #0
	str	r3, [r7, #12]
	.loc 1 268 0
	b	.L95
.L96:
	.loc 1 269 0 discriminator 2
	.syntax divided
@ 269 "libs.c" 1
	NOP
@ 0 "" 2
	.loc 1 268 0 discriminator 2
	.thumb
	.syntax unified
	ldr	r3, [r7, #12]
	adds	r3, r3, #1
	str	r3, [r7, #12]
.L95:
	.loc 1 268 0 is_stmt 0 discriminator 1
	ldr	r2, [r7, #12]
	ldr	r3, [r7, #4]
	cmp	r2, r3
	bcc	.L96
	.loc 1 271 0 is_stmt 1
	nop
	mov	sp, r7
	add	sp, sp, #16
	@ sp needed
	pop	{r7, pc}
	.cfi_endproc
.LFE26:
	.size	delay_us, .-delay_us
	.align	2
	.global	libs_quicksort
	.code	16
	.thumb_func
	.type	libs_quicksort, %function
libs_quicksort:
.LFB27:
	.loc 1 283 0
	.cfi_startproc
	push	{r7, lr}
	.cfi_def_cfa_offset 8
	.cfi_offset 7, -8
	.cfi_offset 14, -4
	sub	sp, sp, #24
	.cfi_def_cfa_offset 32
	add	r7, sp, #0
	.cfi_def_cfa_register 7
	str	r0, [r7, #12]
	str	r1, [r7, #8]
	str	r2, [r7, #4]
	.loc 1 284 0
	ldr	r2, [r7, #8]
	ldr	r3, [r7, #4]
	cmp	r2, r3
	bcs	.L99
.LBB2:
	.loc 1 285 0
	ldr	r2, [r7, #4]
	ldr	r1, [r7, #8]
	ldr	r3, [r7, #12]
	movs	r0, r3
	bl	partition
	movs	r3, r0
	str	r3, [r7, #20]
	.loc 1 286 0
	ldr	r3, [r7, #20]
	subs	r2, r3, #1
	ldr	r1, [r7, #8]
	ldr	r3, [r7, #12]
	movs	r0, r3
	bl	libs_quicksort
	.loc 1 287 0
	ldr	r3, [r7, #20]
	adds	r1, r3, #1
	ldr	r2, [r7, #4]
	ldr	r3, [r7, #12]
	movs	r0, r3
	bl	libs_quicksort
.L99:
.LBE2:
	.loc 1 289 0
	nop
	mov	sp, r7
	add	sp, sp, #24
	@ sp needed
	pop	{r7, pc}
	.cfi_endproc
.LFE27:
	.size	libs_quicksort, .-libs_quicksort
	.align	2
	.global	partition
	.code	16
	.thumb_func
	.type	partition, %function
partition:
.LFB28:
	.loc 1 292 0
	.cfi_startproc
	push	{r7, lr}
	.cfi_def_cfa_offset 8
	.cfi_offset 7, -8
	.cfi_offset 14, -4
	sub	sp, sp, #40
	.cfi_def_cfa_offset 48
	add	r7, sp, #0
	.cfi_def_cfa_register 7
	str	r0, [r7, #12]
	str	r1, [r7, #8]
	str	r2, [r7, #4]
	.loc 1 293 0
	ldr	r3, [r7, #4]
	lsls	r3, r3, #2
	ldr	r2, [r7, #12]
	adds	r3, r2, r3
	ldr	r3, [r3]
	str	r3, [r7, #28]
	.loc 1 294 0
	ldr	r3, [r7, #8]
	str	r3, [r7, #36]
	.loc 1 296 0
	ldr	r3, [r7, #8]
	str	r3, [r7, #32]
	b	.L101
.L103:
	.loc 1 297 0
	ldr	r3, [r7, #32]
	lsls	r3, r3, #2
	ldr	r2, [r7, #12]
	adds	r3, r2, r3
	ldr	r2, [r3]
	ldr	r3, [r7, #28]
	cmp	r2, r3
	bgt	.L102
.LBB3:
	.loc 1 298 0
	ldr	r3, [r7, #36]
	lsls	r3, r3, #2
	ldr	r2, [r7, #12]
	adds	r3, r2, r3
	ldr	r3, [r3]
	str	r3, [r7, #24]
	.loc 1 299 0
	ldr	r3, [r7, #36]
	lsls	r3, r3, #2
	ldr	r2, [r7, #12]
	adds	r3, r2, r3
	ldr	r2, [r7, #32]
	lsls	r2, r2, #2
	ldr	r1, [r7, #12]
	adds	r2, r1, r2
	ldr	r2, [r2]
	str	r2, [r3]
	.loc 1 300 0
	ldr	r3, [r7, #32]
	lsls	r3, r3, #2
	ldr	r2, [r7, #12]
	adds	r3, r2, r3
	ldr	r2, [r7, #24]
	str	r2, [r3]
	.loc 1 301 0
	ldr	r3, [r7, #36]
	adds	r3, r3, #1
	str	r3, [r7, #36]
.L102:
.LBE3:
	.loc 1 296 0 discriminator 2
	ldr	r3, [r7, #32]
	adds	r3, r3, #1
	str	r3, [r7, #32]
.L101:
	.loc 1 296 0 is_stmt 0 discriminator 1
	ldr	r3, [r7, #4]
	subs	r2, r3, #1
	ldr	r3, [r7, #32]
	cmp	r2, r3
	bhi	.L103
	.loc 1 304 0 is_stmt 1
	ldr	r3, [r7, #36]
	lsls	r3, r3, #2
	ldr	r2, [r7, #12]
	adds	r3, r2, r3
	ldr	r3, [r3]
	str	r3, [r7, #20]
	.loc 1 305 0
	ldr	r3, [r7, #36]
	lsls	r3, r3, #2
	ldr	r2, [r7, #12]
	adds	r3, r2, r3
	ldr	r2, [r7, #4]
	lsls	r2, r2, #2
	ldr	r1, [r7, #12]
	adds	r2, r1, r2
	ldr	r2, [r2]
	str	r2, [r3]
	.loc 1 306 0
	ldr	r3, [r7, #4]
	lsls	r3, r3, #2
	ldr	r2, [r7, #12]
	adds	r3, r2, r3
	ldr	r2, [r7, #20]
	str	r2, [r3]
	.loc 1 307 0
	ldr	r3, [r7, #36]
	.loc 1 308 0
	movs	r0, r3
	mov	sp, r7
	add	sp, sp, #40
	@ sp needed
	pop	{r7, pc}
	.cfi_endproc
.LFE28:
	.size	partition, .-partition
.Letext0:
	.file 2 "c:\\program files (x86)\\gnu tools arm embedded\\5.2 2015q4\\arm-none-eabi\\include\\machine\\_default_types.h"
	.file 3 "c:\\program files (x86)\\gnu tools arm embedded\\5.2 2015q4\\arm-none-eabi\\include\\sys\\_stdint.h"
	.file 4 "stm32f0xx.h"