	.syntax unified
	.cpu cortex-m0
	.fpu softvfp
	.eabi_attribute 20, 1
	.eabi_attribute 21, 1
	.eabi_attribute 23, 3
	.eabi_attribute 24, 1
	.eabi_attribute 25, 1
	.eabi_attribute 26, 1
	.eabi_attribute 30, 6
	.eabi_attribute 34, 0
	.eabi_attribute 18, 4
	.thumb
	.syntax unified
	.file	"main.c"
	.text
.Ltext0:
	.cfi_sections	.debug_frame
	.align	2
	.global	main
	.code	16
	.thumb_func
	.type	main, %function
main:
.LFB0:
	.file 1 "main.c"
	.loc 1 67 0
	.cfi_startproc
	push	{r7, lr}
	.cfi_def_cfa_offset 8
	.cfi_offset 7, -8
	.cfi_offset 14, -4
	add	r7, sp, #0
	.cfi_def_cfa_register 7
	.loc 1 70 0
	bl	lib_init_leds
	.loc 1 71 0
	movs	r0, #1
	bl	lib_write_leds
	.loc 1 72 0
	bl	lock_crystal
.L2:
	.loc 1 76 0 discriminator 1
	ldr	r3, .L3
	movs	r0, r3
	bl	toggle_LED_many_times
	.loc 1 78 0 discriminator 1
	b	.L2
.L4:
	.align	2
.L3:
	.word	200000
	.cfi_endproc
.LFE0:
	.size	main, .-main
	.align	2
	.global	lock_crystal
	.code	16
	.thumb_func
	.type	lock_crystal, %function
lock_crystal:
.LFB1:
	.loc 1 84 0
	.cfi_startproc
	push	{r7, lr}
	.cfi_def_cfa_offset 8
	.cfi_offset 7, -8
	.cfi_offset 14, -4
	add	r7, sp, #0
	.cfi_def_cfa_register 7
	.loc 1 85 0
	ldr	r3, .L9
	ldr	r2, .L9
	ldr	r2, [r2]
	movs	r1, #128
	lsls	r1, r1, #9
	orrs	r2, r1
	str	r2, [r3]
	.loc 1 86 0
	nop
.L6:
	.loc 1 86 0 is_stmt 0 discriminator 1
	ldr	r3, .L9
	ldr	r2, [r3]
	movs	r3, #128
	lsls	r3, r3, #10
	ands	r3, r2
	beq	.L6
	.loc 1 88 0 is_stmt 1
	ldr	r3, .L9+4
	movs	r2, #17
	str	r2, [r3]
	.loc 1 89 0
	ldr	r3, .L9
	ldr	r2, .L9
	ldr	r2, [r2, #4]
	movs	r1, #128
	lsls	r1, r1, #13
	orrs	r2, r1
	str	r2, [r3, #4]
	.loc 1 90 0
	ldr	r3, .L9
	ldr	r2, .L9
	ldr	r2, [r2, #4]
	movs	r1, #128
	lsls	r1, r1, #9
	orrs	r2, r1
	str	r2, [r3, #4]
	.loc 1 91 0
	ldr	r3, .L9
	ldr	r2, .L9
	ldr	r2, [r2]
	movs	r1, #128
	lsls	r1, r1, #17
	orrs	r2, r1
	str	r2, [r3]
	.loc 1 92 0
	nop
.L7:
	.loc 1 92 0 is_stmt 0 discriminator 1
	ldr	r3, .L9
	ldr	r2, [r3]
	movs	r3, #128
	lsls	r3, r3, #18
	ands	r3, r2
	beq	.L7
	.loc 1 93 0 is_stmt 1
	ldr	r3, .L9
	ldr	r2, .L9
	ldr	r2, [r2, #4]
	movs	r1, #2
	orrs	r2, r1
	str	r2, [r3, #4]
	.loc 1 94 0
	nop
.L8:
	.loc 1 94 0 is_stmt 0 discriminator 1
	ldr	r3, .L9
	ldr	r3, [r3, #4]
	movs	r2, #8
	ands	r3, r2
	beq	.L8
	.loc 1 95 0 is_stmt 1
	nop
	mov	sp, r7
	@ sp needed
	pop	{r7, pc}
.L10:
	.align	2
.L9:
	.word	1073876992
	.word	1073881088
	.cfi_endproc
.LFE1:
	.size	lock_crystal, .-lock_crystal
	.align	2
	.global	unlock_crystal
	.code	16
	.thumb_func
	.type	unlock_crystal, %function
unlock_crystal:
.LFB2:
	.loc 1 97 0
	.cfi_startproc
	push	{r7, lr}
	.cfi_def_cfa_offset 8
	.cfi_offset 7, -8
	.cfi_offset 14, -4
	add	r7, sp, #0
	.cfi_def_cfa_register 7
	.loc 1 98 0
	ldr	r3, .L13
	ldr	r2, .L13
	ldr	r2, [r2, #4]
	movs	r1, #3
	bics	r2, r1
	str	r2, [r3, #4]
	.loc 1 99 0
	nop
.L12:
	.loc 1 99 0 is_stmt 0 discriminator 1
	ldr	r3, .L13
	ldr	r3, [r3, #4]
	movs	r2, #8
	ands	r3, r2
	bne	.L12
	.loc 1 100 0 is_stmt 1
	ldr	r3, .L13
	ldr	r2, .L13
	ldr	r2, [r2]
	ldr	r1, .L13+4
	ands	r2, r1
	str	r2, [r3]
	.loc 1 101 0
	nop
	mov	sp, r7
	@ sp needed
	pop	{r7, pc}
.L14:
	.align	2
.L13:
	.word	1073876992
	.word	-65537
	.cfi_endproc
.LFE2:
	.size	unlock_crystal, .-unlock_crystal
	.align	2
	.global	toggle_LED_many_times
	.code	16
	.thumb_func
	.type	toggle_LED_many_times, %function
toggle_LED_many_times:
.LFB3:
	.loc 1 103 0
	.cfi_startproc
	push	{r7, lr}
	.cfi_def_cfa_offset 8
	.cfi_offset 7, -8
	.cfi_offset 14, -4
	sub	sp, sp, #16
	.cfi_def_cfa_offset 24
	add	r7, sp, #0
	.cfi_def_cfa_register 7
	str	r0, [r7, #4]
.LBB2:
	.loc 1 104 0
	movs	r3, #0
	str	r3, [r7, #12]
	b	.L16
.L17:
	.loc 1 105 0 discriminator 3
	ldr	r3, .L18
	ldr	r2, .L18
	ldr	r2, [r2, #24]
	movs	r1, #1
	orrs	r2, r1
	str	r2, [r3, #24]
	.loc 1 106 0 discriminator 3
	ldr	r3, .L18
	ldr	r2, .L18
	ldr	r2, [r2, #24]
	movs	r1, #128
	lsls	r1, r1, #9
	orrs	r2, r1
	str	r2, [r3, #24]
	.loc 1 104 0 discriminator 3
	ldr	r3, [r7, #12]
	adds	r3, r3, #1
	str	r3, [r7, #12]
.L16:
	.loc 1 104 0 is_stmt 0 discriminator 1
	ldr	r2, [r7, #12]
	ldr	r3, [r7, #4]
	cmp	r2, r3
	bcc	.L17
.LBE2:
	.loc 1 108 0 is_stmt 1
	nop
	mov	sp, r7
	add	sp, sp, #16
	@ sp needed
	pop	{r7, pc}
.L19:
	.align	2
.L18:
	.word	1207960576
	.cfi_endproc
.LFE3:
	.size	toggle_LED_many_times, .-toggle_LED_many_times
	.align	2
	.global	TIM6_IRQHandler
	.code	16
	.thumb_func
	.type	TIM6_IRQHandler, %function
TIM6_IRQHandler:
.LFB4:
	.loc 1 112 0
	.cfi_startproc
	push	{r7, lr}
	.cfi_def_cfa_offset 8
	.cfi_offset 7, -8
	.cfi_offset 14, -4
	add	r7, sp, #0
	.cfi_def_cfa_register 7
	.loc 1 114 0
	bl	lib_TIM6_ACK
	.loc 1 116 0
	nop
	mov	sp, r7
	@ sp needed
	pop	{r7, pc}
	.cfi_endproc
.LFE4:
	.size	TIM6_IRQHandler, .-TIM6_IRQHandler
	.align	2
	.global	TIM14_IRQHandler
	.code	16
	.thumb_func
	.type	TIM14_IRQHandler, %function
TIM14_IRQHandler:
.LFB5:
	.loc 1 119 0
	.cfi_startproc
	push	{r7, lr}
	.cfi_def_cfa_offset 8
	.cfi_offset 7, -8
	.cfi_offset 14, -4
	add	r7, sp, #0
	.cfi_def_cfa_register 7
	.loc 1 121 0
	bl	lib_TIM14_ACK
	.loc 1 123 0
	nop
	mov	sp, r7
	@ sp needed
	pop	{r7, pc}
	.cfi_endproc
.LFE5:
	.size	TIM14_IRQHandler, .-TIM14_IRQHandler
.Letext0:
	.file 2 "c:\\program files (x86)\\gnu tools arm embedded\\5.2 2015q4\\arm-none-eabi\\include\\machine\\_default_types.h"
	.file 3 "c:\\program files (x86)\\gnu tools arm embedded\\5.2 2015q4\\arm-none-eabi\\include\\sys\\_stdint.h"
	.file 4 "stm32f0xx.h"